; Function Attrs: nounwind uwtable
define void @statevec_rotateAroundAxis(ptr noundef readonly byval(%struct.Qureg) align 8 captures(none) %0, i32 noundef %1, double noundef %2, ptr noundef readonly byval(%struct.Vector) align 8 captures(none) %3) local_unnamed_addr #11 {
  %.sroa.03.0.copyload = load double, ptr %3, align 8
  %.sroa.44.0..sroa_idx = getelementptr inbounds nuw i8, ptr %3, i64 8
  %.sroa.44.0.copyload = load double, ptr %.sroa.44.0..sroa_idx, align 8
  %.sroa.5.0..sroa_idx = getelementptr inbounds nuw i8, ptr %3, i64 16
  %.sroa.5.0.copyload = load double, ptr %.sroa.5.0..sroa_idx, align 8
  %5 = fmul double %.sroa.44.0.copyload, %.sroa.44.0.copyload
  %6 = tail call double @llvm.fmuladd.f64(double %.sroa.03.0.copyload, double %.sroa.03.0.copyload, double %5)
  %7 = tail call double @llvm.fmuladd.f64(double %.sroa.5.0.copyload, double %.sroa.5.0.copyload, double %6)
  %sqrt.i.i.i = tail call double @llvm.sqrt.f64(double %7)
  %8 = fdiv double %.sroa.03.0.copyload, %sqrt.i.i.i
  %9 = fdiv double %.sroa.44.0.copyload, %sqrt.i.i.i
  %10 = fdiv double %.sroa.5.0.copyload, %sqrt.i.i.i
  %11 = fmul double %2, 5.000000e-01
  %12 = tail call double @cos(double noundef %11) #22, !tbaa !4
  %13 = tail call double @sin(double noundef %11) #22, !tbaa !4
  %14 = fneg double %13
  %15 = fmul double %10, %14
  %16 = tail call double @sin(double noundef %11) #22, !tbaa !4
  %17 = fmul double %16, %9
  %18 = tail call double @sin(double noundef %11) #22, !tbaa !4
  %19 = fneg double %18
  %20 = fmul double %8, %19
  tail call void @statevec_compactUnitary(ptr noundef nonnull byval(%struct.Qureg) align 8 %0, i32 noundef %1, double %12, double %15, double %17, double %20) #22
  ret void
}